target datalayout = "e-m:e-p270:32:32-p271:32:32-p272:64:64-i64:64-i128:128-f80:128-n8:16:32:64-S128"
target triple = "x86_64-pc-linux-gnu"

%struct.object_id = type { [32 x i8], i32 }
%struct.kh_oid_map = type { i32, i32, i32, i32, ptr, ptr, ptr }
%struct.island_bitmap = type { i32, [0 x i32] }
%struct.packing_data = type { ptr, ptr, i32, i32, ptr, i32, ptr, ptr, ptr, ptr, %union.pthread_mutex_t, ptr, i32, i32, i64, i64, ptr, ptr, ptr }
%union.pthread_mutex_t = type { %struct.__pthread_mutex_s }
%struct.__pthread_mutex_s = type { i32, i32, i32, i32, i32, i16, i16, %struct.__pthread_internal_list }
%struct.__pthread_internal_list = type { ptr, ptr }
%struct.object_entry = type { %struct.pack_idx_entry, ptr, i64, i32, i32, i32, i32, i32, [3 x i8], i8, i64 }
%struct.pack_idx_entry = type { %struct.object_id, i32, i64 }

@island_marks = internal global ptr null, align 8
@core_island_name = internal global ptr null, align 8
@island_counter_core = internal global i32 0, align 4

; Function Attrs: inlinehint nounwind uwtable
define internal i32 @oideq(ptr noundef %0, ptr noundef %1) #2 {
  %3 = alloca ptr, align 8
  %4 = alloca ptr, align 8
  store ptr %0, ptr %3, align 8, !tbaa !4
  store ptr %1, ptr %4, align 8, !tbaa !4
  %5 = load ptr, ptr %3, align 8, !tbaa !4
  %6 = getelementptr inbounds nuw %struct.object_id, ptr %5, i32 0, i32 0
  %7 = getelementptr inbounds [32 x i8], ptr %6, i64 0, i64 0
  %8 = load ptr, ptr %4, align 8, !tbaa !4
  %9 = getelementptr inbounds nuw %struct.object_id, ptr %8, i32 0, i32 0
  %10 = getelementptr inbounds [32 x i8], ptr %9, i64 0, i64 0
  %11 = call i32 @memcmp(ptr noundef %7, ptr noundef %10, i64 noundef 32) #12
  %12 = icmp ne i32 %11, 0
  %13 = xor i1 %12, true
  %14 = zext i1 %13 to i32
  ret i32 %14
}

; Function Attrs: inlinehint nounwind uwtable
define internal i32 @oidhash(ptr noundef %0) #2 {
  %2 = alloca ptr, align 8
  %3 = alloca i32, align 4
  store ptr %0, ptr %2, align 8, !tbaa !4
  call void @llvm.lifetime.start.p0(i64 4, ptr %3) #10
  %4 = load ptr, ptr %2, align 8, !tbaa !4
  %5 = getelementptr inbounds nuw %struct.object_id, ptr %4, i32 0, i32 0
  %6 = getelementptr inbounds [32 x i8], ptr %5, i64 0, i64 0
  call void @llvm.memcpy.p0.p0.i64(ptr align 4 %3, ptr align 4 %6, i64 4, i1 false)
  %7 = load i32, ptr %3, align 4, !tbaa !13
  call void @llvm.lifetime.end.p0(i64 4, ptr %3) #10
  ret i32 %7
}

; Function Attrs: inlinehint nounwind uwtable
define internal i32 @oideq_by_value(ptr noundef byval(%struct.object_id) align 8 %0, ptr noundef byval(%struct.object_id) align 8 %1) #2 {
  %3 = call i32 @oideq(ptr noundef %0, ptr noundef %1)
  ret i32 %3
}

; Function Attrs: inlinehint nounwind uwtable
define internal i32 @oidhash_by_value(ptr noundef byval(%struct.object_id) align 8 %0) #2 {
  %2 = call i32 @oidhash(ptr noundef %0)
  ret i32 %2
}

; Function Attrs: nounwind uwtable
define internal i32 @island_bitmap_get(ptr noundef %0, i32 noundef %1) #0 {
  %3 = alloca ptr, align 8
  %4 = alloca i32, align 4
  store ptr %0, ptr %3, align 8, !tbaa !24
  store i32 %1, ptr %4, align 4, !tbaa !13
  %5 = load ptr, ptr %3, align 8, !tbaa !24
  %6 = getelementptr inbounds nuw %struct.island_bitmap, ptr %5, i32 0, i32 1
  %7 = load i32, ptr %4, align 4, !tbaa !13
  %8 = udiv i32 %7, 32
  %9 = zext i32 %8 to i64
  %10 = getelementptr inbounds nuw [0 x i32], ptr %6, i64 0, i64 %9
  %11 = load i32, ptr %10, align 4, !tbaa !13
  %12 = load i32, ptr %4, align 4, !tbaa !13
  %13 = urem i32 %12, 32
  %14 = shl i32 1, %13
  %15 = and i32 %11, %14
  %16 = icmp ne i32 %15, 0
  %17 = zext i1 %16 to i32
  ret i32 %17
}

; Function Attrs: inlinehint nounwind uwtable
define internal void @oe_set_layer(ptr noundef %0, ptr noundef %1, i8 noundef zeroext %2) #2 {
  %4 = alloca ptr, align 8
  %5 = alloca ptr, align 8
  %6 = alloca i8, align 1
  store ptr %0, ptr %4, align 8, !tbaa !29
  store ptr %1, ptr %5, align 8, !tbaa !47
  store i8 %2, ptr %6, align 1, !tbaa !12
  %7 = load ptr, ptr %4, align 8, !tbaa !29
  %8 = getelementptr inbounds nuw %struct.packing_data, ptr %7, i32 0, i32 17
  %9 = load ptr, ptr %8, align 8, !tbaa !120
  %10 = icmp ne ptr %9, null
  br i1 %10, label %19, label %11

11:                                               ; preds = %3
  %12 = load ptr, ptr %4, align 8, !tbaa !29
  %13 = getelementptr inbounds nuw %struct.packing_data, ptr %12, i32 0, i32 3
  %14 = load i32, ptr %13, align 4, !tbaa !121
  %15 = zext i32 %14 to i64
  %16 = call ptr @xcalloc(i64 noundef %15, i64 noundef 1)
  %17 = load ptr, ptr %4, align 8, !tbaa !29
  %18 = getelementptr inbounds nuw %struct.packing_data, ptr %17, i32 0, i32 17
  store ptr %16, ptr %18, align 8, !tbaa !120
  br label %19

19:                                               ; preds = %11, %3
  %20 = load i8, ptr %6, align 1, !tbaa !12
  %21 = load ptr, ptr %4, align 8, !tbaa !29
  %22 = getelementptr inbounds nuw %struct.packing_data, ptr %21, i32 0, i32 17
  %23 = load ptr, ptr %22, align 8, !tbaa !120
  %24 = load ptr, ptr %5, align 8, !tbaa !47
  %25 = load ptr, ptr %4, align 8, !tbaa !29
  %26 = getelementptr inbounds nuw %struct.packing_data, ptr %25, i32 0, i32 1
  %27 = load ptr, ptr %26, align 8, !tbaa !42
  %28 = ptrtoint ptr %24 to i64
  %29 = ptrtoint ptr %27 to i64
  %30 = sub i64 %28, %29
  %31 = sdiv exact i64 %30, 96
  %32 = getelementptr inbounds i8, ptr %23, i64 %31
  store i8 %20, ptr %32, align 1, !tbaa !12
  ret void
}

; Function Attrs: inlinehint nounwind uwtable
define internal i32 @kh_get_oid_map(ptr noundef %0, ptr noundef byval(%struct.object_id) align 8 %1) #2 {
  %3 = alloca i32, align 4
  %4 = alloca ptr, align 8
  %5 = alloca i32, align 4
  %6 = alloca i32, align 4
  %7 = alloca i32, align 4
  %8 = alloca i32, align 4
  %9 = alloca i32, align 4
  %10 = alloca %struct.object_id, align 8
  %11 = alloca i32, align 4
  store ptr %0, ptr %4, align 8, !tbaa !9
  %12 = load ptr, ptr %4, align 8, !tbaa !9
  %13 = getelementptr inbounds nuw %struct.kh_oid_map, ptr %12, i32 0, i32 0
  %14 = load i32, ptr %13, align 8, !tbaa !15
  %15 = icmp ne i32 %14, 0
  br i1 %15, label %16, label %109

16:                                               ; preds = %2
  call void @llvm.lifetime.start.p0(i64 4, ptr %5) #10
  call void @llvm.lifetime.start.p0(i64 4, ptr %6) #10
  call void @llvm.lifetime.start.p0(i64 4, ptr %7) #10
  call void @llvm.lifetime.start.p0(i64 4, ptr %8) #10
  call void @llvm.lifetime.start.p0(i64 4, ptr %9) #10
  store i32 0, ptr %9, align 4, !tbaa !13
  %17 = load ptr, ptr %4, align 8, !tbaa !9
  %18 = getelementptr inbounds nuw %struct.kh_oid_map, ptr %17, i32 0, i32 0
  %19 = load i32, ptr %18, align 8, !tbaa !15
  %20 = sub i32 %19, 1
  store i32 %20, ptr %8, align 4, !tbaa !13
  %21 = call i32 @oidhash_by_value(ptr noundef byval(%struct.object_id) align 8 %1)
  store i32 %21, ptr %5, align 4, !tbaa !13
  %22 = load i32, ptr %5, align 4, !tbaa !13
  %23 = load i32, ptr %8, align 4, !tbaa !13
  %24 = and i32 %22, %23
  store i32 %24, ptr %6, align 4, !tbaa !13
  %25 = load i32, ptr %6, align 4, !tbaa !13
  store i32 %25, ptr %7, align 4, !tbaa !13
  br label %26

26:                                               ; preds = %84, %16
  %27 = load ptr, ptr %4, align 8, !tbaa !9
  %28 = getelementptr inbounds nuw %struct.kh_oid_map, ptr %27, i32 0, i32 4
  %29 = load ptr, ptr %28, align 8, !tbaa !20
  %30 = load i32, ptr %6, align 4, !tbaa !13
  %31 = lshr i32 %30, 4
  %32 = zext i32 %31 to i64
  %33 = getelementptr inbounds nuw i32, ptr %29, i64 %32
  %34 = load i32, ptr %33, align 4, !tbaa !13
  %35 = load i32, ptr %6, align 4, !tbaa !13
  %36 = and i32 %35, 15
  %37 = shl i32 %36, 1
  %38 = lshr i32 %34, %37
  %39 = and i32 %38, 2
  %40 = icmp ne i32 %39, 0
  br i1 %40, label %68, label %41

41:                                               ; preds = %26
  %42 = load ptr, ptr %4, align 8, !tbaa !9
  %43 = getelementptr inbounds nuw %struct.kh_oid_map, ptr %42, i32 0, i32 4
  %44 = load ptr, ptr %43, align 8, !tbaa !20
  %45 = load i32, ptr %6, align 4, !tbaa !13
  %46 = lshr i32 %45, 4
  %47 = zext i32 %46 to i64
  %48 = getelementptr inbounds nuw i32, ptr %44, i64 %47
  %49 = load i32, ptr %48, align 4, !tbaa !13
  %50 = load i32, ptr %6, align 4, !tbaa !13
  %51 = and i32 %50, 15
  %52 = shl i32 %51, 1
  %53 = lshr i32 %49, %52
  %54 = and i32 %53, 1
  %55 = icmp ne i32 %54, 0
  br i1 %55, label %66, label %56

56:                                               ; preds = %41
  %57 = load ptr, ptr %4, align 8, !tbaa !9
  %58 = getelementptr inbounds nuw %struct.kh_oid_map, ptr %57, i32 0, i32 5
  %59 = load ptr, ptr %58, align 8, !tbaa !21
  %60 = load i32, ptr %6, align 4, !tbaa !13
  %61 = zext i32 %60 to i64
  %62 = getelementptr inbounds nuw %struct.object_id, ptr %59, i64 %61
  call void @llvm.lifetime.start.p0(i64 36, ptr %10) #10
  call void @llvm.memcpy.p0.p0.i64(ptr align 8 %10, ptr align 4 %62, i64 36, i1 false), !tbaa.struct !11
  %63 = call i32 @oideq_by_value(ptr noundef byval(%struct.object_id) align 8 %10, ptr noundef byval(%struct.object_id) align 8 %1)
  call void @llvm.lifetime.end.p0(i64 36, ptr %10) #10
  %64 = icmp ne i32 %63, 0
  %65 = xor i1 %64, true
  br label %66

66:                                               ; preds = %56, %41
  %67 = phi i1 [ true, %41 ], [ %65, %56 ]
  br label %68

68:                                               ; preds = %66, %26
  %69 = phi i1 [ false, %26 ], [ %67, %66 ]
  br i1 %69, label %70, label %85

70:                                               ; preds = %68
  %71 = load i32, ptr %6, align 4, !tbaa !13
  %72 = load i32, ptr %9, align 4, !tbaa !13
  %73 = add i32 %72, 1
  store i32 %73, ptr %9, align 4, !tbaa !13
  %74 = add i32 %71, %73
  %75 = load i32, ptr %8, align 4, !tbaa !13
  %76 = and i32 %74, %75
  store i32 %76, ptr %6, align 4, !tbaa !13
  %77 = load i32, ptr %6, align 4, !tbaa !13
  %78 = load i32, ptr %7, align 4, !tbaa !13
  %79 = icmp eq i32 %77, %78
  br i1 %79, label %80, label %84

80:                                               ; preds = %70
  %81 = load ptr, ptr %4, align 8, !tbaa !9
  %82 = getelementptr inbounds nuw %struct.kh_oid_map, ptr %81, i32 0, i32 0
  %83 = load i32, ptr %82, align 8, !tbaa !15
  store i32 %83, ptr %3, align 4
  store i32 1, ptr %11, align 4
  br label %108

84:                                               ; preds = %70
  br label %26, !llvm.loop !22

85:                                               ; preds = %68
  %86 = load ptr, ptr %4, align 8, !tbaa !9
  %87 = getelementptr inbounds nuw %struct.kh_oid_map, ptr %86, i32 0, i32 4
  %88 = load ptr, ptr %87, align 8, !tbaa !20
  %89 = load i32, ptr %6, align 4, !tbaa !13
  %90 = lshr i32 %89, 4
  %91 = zext i32 %90 to i64
  %92 = getelementptr inbounds nuw i32, ptr %88, i64 %91
  %93 = load i32, ptr %92, align 4, !tbaa !13
  %94 = load i32, ptr %6, align 4, !tbaa !13
  %95 = and i32 %94, 15
  %96 = shl i32 %95, 1
  %97 = lshr i32 %93, %96
  %98 = and i32 %97, 3
  %99 = icmp ne i32 %98, 0
  br i1 %99, label %100, label %104

100:                                              ; preds = %85
  %101 = load ptr, ptr %4, align 8, !tbaa !9
  %102 = getelementptr inbounds nuw %struct.kh_oid_map, ptr %101, i32 0, i32 0
  %103 = load i32, ptr %102, align 8, !tbaa !15
  br label %106

104:                                              ; preds = %85
  %105 = load i32, ptr %6, align 4, !tbaa !13
  br label %106

106:                                              ; preds = %104, %100
  %107 = phi i32 [ %103, %100 ], [ %105, %104 ]
  store i32 %107, ptr %3, align 4
  store i32 1, ptr %11, align 4
  br label %108

108:                                              ; preds = %106, %80
  call void @llvm.lifetime.end.p0(i64 4, ptr %9) #10
  call void @llvm.lifetime.end.p0(i64 4, ptr %8) #10
  call void @llvm.lifetime.end.p0(i64 4, ptr %7) #10
  call void @llvm.lifetime.end.p0(i64 4, ptr %6) #10
  call void @llvm.lifetime.end.p0(i64 4, ptr %5) #10
  br label %110

109:                                              ; preds = %2
  store i32 0, ptr %3, align 4
  br label %110

110:                                              ; preds = %109, %108
  %111 = load i32, ptr %3, align 4
  ret i32 %111
}

; Function Attrs: nounwind uwtable
define dso_local i32 @compute_pack_layers(ptr noundef %0) #0 {
  %2 = alloca i32, align 4
  %3 = alloca ptr, align 8
  %4 = alloca i32, align 4
  %5 = alloca i32, align 4
  %6 = alloca ptr, align 8
  %7 = alloca i32, align 4
  %8 = alloca ptr, align 8
  store ptr %0, ptr %3, align 8, !tbaa !29
  call void @llvm.lifetime.start.p0(i64 4, ptr %4) #10
  %9 = load ptr, ptr @core_island_name, align 8, !tbaa !63
  %10 = icmp ne ptr %9, null
  br i1 %10, label %11, label %14

11:                                               ; preds = %1
  %12 = load ptr, ptr @island_marks, align 8, !tbaa !9
  %13 = icmp ne ptr %12, null
  br i1 %13, label %15, label %14

14:                                               ; preds = %11, %1
  store i32 1, ptr %2, align 4
  store i32 1, ptr %5, align 4
  br label %62

15:                                               ; preds = %11
  store i32 0, ptr %4, align 4, !tbaa !13
  br label %16

16:                                               ; preds = %58, %15
  %17 = load i32, ptr %4, align 4, !tbaa !13
  %18 = load ptr, ptr %3, align 8, !tbaa !29
  %19 = getelementptr inbounds nuw %struct.packing_data, ptr %18, i32 0, i32 2
  %20 = load i32, ptr %19, align 8, !tbaa !33
  %21 = icmp ult i32 %17, %20
  br i1 %21, label %22, label %61

22:                                               ; preds = %16
  call void @llvm.lifetime.start.p0(i64 8, ptr %6) #10
  %23 = load ptr, ptr %3, align 8, !tbaa !29
  %24 = getelementptr inbounds nuw %struct.packing_data, ptr %23, i32 0, i32 1
  %25 = load ptr, ptr %24, align 8, !tbaa !42
  %26 = load i32, ptr %4, align 4, !tbaa !13
  %27 = zext i32 %26 to i64
  %28 = getelementptr inbounds nuw %struct.object_entry, ptr %25, i64 %27
  store ptr %28, ptr %6, align 8, !tbaa !47
  call void @llvm.lifetime.start.p0(i64 4, ptr %7) #10
  %29 = load ptr, ptr @island_marks, align 8, !tbaa !9
  %30 = load ptr, ptr %6, align 8, !tbaa !47
  %31 = getelementptr inbounds nuw %struct.object_entry, ptr %30, i32 0, i32 0
  %32 = getelementptr inbounds nuw %struct.pack_idx_entry, ptr %31, i32 0, i32 0
  %33 = call i32 @kh_get_oid_map(ptr noundef %29, ptr noundef byval(%struct.object_id) align 8 %32)
  store i32 %33, ptr %7, align 4, !tbaa !13
  %34 = load ptr, ptr %3, align 8, !tbaa !29
  %35 = load ptr, ptr %6, align 8, !tbaa !47
  call void @oe_set_layer(ptr noundef %34, ptr noundef %35, i8 noundef zeroext 1)
  %36 = load i32, ptr %7, align 4, !tbaa !13
  %37 = load ptr, ptr @island_marks, align 8, !tbaa !9
  %38 = getelementptr inbounds nuw %struct.kh_oid_map, ptr %37, i32 0, i32 0
  %39 = load i32, ptr %38, align 8, !tbaa !15
  %40 = icmp ult i32 %36, %39
  br i1 %40, label %41, label %57

41:                                               ; preds = %22
  call void @llvm.lifetime.start.p0(i64 8, ptr %8) #10
  %42 = load ptr, ptr @island_marks, align 8, !tbaa !9
  %43 = getelementptr inbounds nuw %struct.kh_oid_map, ptr %42, i32 0, i32 6
  %44 = load ptr, ptr %43, align 8, !tbaa !18
  %45 = load i32, ptr %7, align 4, !tbaa !13
  %46 = zext i32 %45 to i64
  %47 = getelementptr inbounds nuw ptr, ptr %44, i64 %46
  %48 = load ptr, ptr %47, align 8, !tbaa !19
  store ptr %48, ptr %8, align 8, !tbaa !24
  %49 = load ptr, ptr %8, align 8, !tbaa !24
  %50 = load i32, ptr @island_counter_core, align 4, !tbaa !13
  %51 = call i32 @island_bitmap_get(ptr noundef %49, i32 noundef %50)
  %52 = icmp ne i32 %51, 0
  br i1 %52, label %53, label %56

53:                                               ; preds = %41
  %54 = load ptr, ptr %3, align 8, !tbaa !29
  %55 = load ptr, ptr %6, align 8, !tbaa !47
  call void @oe_set_layer(ptr noundef %54, ptr noundef %55, i8 noundef zeroext 0)
  br label %56

56:                                               ; preds = %53, %41
  call void @llvm.lifetime.end.p0(i64 8, ptr %8) #10
  br label %57

57:                                               ; preds = %56, %22
  call void @llvm.lifetime.end.p0(i64 4, ptr %7) #10
  call void @llvm.lifetime.end.p0(i64 8, ptr %6) #10
  br label %58

58:                                               ; preds = %57
  %59 = load i32, ptr %4, align 4, !tbaa !13
  %60 = add i32 %59, 1
  store i32 %60, ptr %4, align 4, !tbaa !13
  br label %16, !llvm.loop !119

61:                                               ; preds = %16
  store i32 2, ptr %2, align 4
  store i32 1, ptr %5, align 4
  br label %62

62:                                               ; preds = %61, %14
  call void @llvm.lifetime.end.p0(i64 4, ptr %4) #10
  %63 = load i32, ptr %2, align 4
  ret i32 %63
}