; Function Attrs: nounwind uwtable
define dso_local range(i32 1, 3) i32 @compute_pack_layers(ptr noundef captures(none) %0) local_unnamed_addr #3 {
  %2 = alloca %struct.object_id, align 8
  %3 = alloca %struct.object_id, align 8
  %4 = load ptr, ptr @core_island_name, align 8, !tbaa !76
  %5 = icmp ne ptr %4, null
  %6 = load ptr, ptr @island_marks, align 8
  %7 = icmp ne ptr %6, null
  %or.cond = select i1 %5, i1 %7, i1 false
  br i1 %or.cond, label %.preheader, label %.loopexit

.preheader:                                       ; preds = %1
  %8 = getelementptr inbounds nuw i8, ptr %0, i64 16
  %9 = load i32, ptr %8, align 8, !tbaa !26
  %.not24 = icmp eq i32 %9, 0
  br i1 %.not24, label %.loopexit, label %.lr.ph

.lr.ph:                                           ; preds = %.preheader
  %10 = getelementptr inbounds nuw i8, ptr %0, i64 8
  %11 = getelementptr inbounds nuw i8, ptr %0, i64 152
  %12 = getelementptr inbounds nuw i8, ptr %0, i64 20
  br label %13

13:                                               ; preds = %.lr.ph, %88
  %14 = phi ptr [ %6, %.lr.ph ], [ %89, %88 ]
  %indvars.iv = phi i64 [ 0, %.lr.ph ], [ %indvars.iv.next, %88 ]
  %15 = load ptr, ptr %10, align 8, !tbaa !34
  %16 = getelementptr inbounds nuw %struct.object_entry, ptr %15, i64 %indvars.iv
  call void @llvm.lifetime.start.p0(i64 36, ptr nonnull %3)
  call void @llvm.memcpy.p0.p0.i64(ptr noundef nonnull align 8 dereferenceable(36) %3, ptr noundef nonnull align 1 dereferenceable(36) %16, i64 36, i1 false)
  %17 = load i32, ptr %14, align 8, !tbaa !9
  %.not.i = icmp eq i32 %17, 0
  br i1 %.not.i, label %kh_get_oid_map.exit, label %18

18:                                               ; preds = %13
  %19 = add i32 %17, -1
  %.val.i = load i32, ptr %3, align 8
  %20 = and i32 %.val.i, %19
  %21 = getelementptr inbounds nuw i8, ptr %14, i64 16
  %22 = load ptr, ptr %21, align 8, !tbaa !14
  %23 = getelementptr inbounds nuw i8, ptr %14, i64 24
  br label %24

24:                                               ; preds = %.critedge2.i, %18
  %.027.i = phi i32 [ %20, %18 ], [ %41, %.critedge2.i ]
  %.0.i = phi i32 [ 0, %18 ], [ %39, %.critedge2.i ]
  %25 = lshr i32 %.027.i, 4
  %26 = zext nneg i32 %25 to i64
  %27 = getelementptr inbounds nuw i32, ptr %22, i64 %26
  %28 = load i32, ptr %27, align 4, !tbaa !15
  %29 = shl i32 %.027.i, 1
  %30 = and i32 %29, 30
  %31 = lshr i32 %28, %30
  %32 = and i32 %31, 2
  %.not30.i = icmp eq i32 %32, 0
  br i1 %.not30.i, label %33, label %.critedge.i

33:                                               ; preds = %24
  %34 = and i32 %31, 1
  %.not31.i = icmp eq i32 %34, 0
  br i1 %.not31.i, label %35, label %.critedge2.i

35:                                               ; preds = %33
  %36 = load ptr, ptr %23, align 8, !tbaa !16
  %37 = zext i32 %.027.i to i64
  %38 = getelementptr inbounds nuw %struct.object_id, ptr %36, i64 %37
  call void @llvm.lifetime.start.p0(i64 36, ptr nonnull %2) #17
  call void @llvm.memcpy.p0.p0.i64(ptr noundef nonnull align 8 dereferenceable(36) %2, ptr noundef nonnull align 4 dereferenceable(36) %38, i64 36, i1 false), !tbaa.struct !17
  %bcmp.i.i.i = call i32 @bcmp(ptr noundef nonnull readonly align 8 dereferenceable(32) %2, ptr noundef nonnull readonly align 8 dereferenceable(32) %3, i64 32)
  %.not.i.i.not.i = icmp eq i32 %bcmp.i.i.i, 0
  call void @llvm.lifetime.end.p0(i64 36, ptr nonnull %2) #17
  br i1 %.not.i.i.not.i, label %.critedge.i, label %.critedge2.i

.critedge2.i:                                     ; preds = %35, %33
  %39 = add i32 %.0.i, 1
  %40 = add i32 %39, %.027.i
  %41 = and i32 %40, %19
  %42 = icmp eq i32 %41, %20
  br i1 %42, label %kh_get_oid_map.exit, label %24, !llvm.loop !19

.critedge.i:                                      ; preds = %35, %24
  %43 = shl nuw i32 3, %30
  %44 = and i32 %43, %28
  %.not33.i = icmp eq i32 %44, 0
  %spec.select.i = select i1 %.not33.i, i32 %.027.i, i32 %17
  br label %kh_get_oid_map.exit

kh_get_oid_map.exit:                              ; preds = %.critedge2.i, %13, %.critedge.i
  %.1.i = phi i32 [ 0, %13 ], [ %spec.select.i, %.critedge.i ], [ %17, %.critedge2.i ]
  call void @llvm.lifetime.end.p0(i64 36, ptr nonnull %3)
  %45 = load ptr, ptr %11, align 8, !tbaa !112
  %.not.i16 = icmp eq ptr %45, null
  br i1 %.not.i16, label %46, label %oe_set_layer.exit

46:                                               ; preds = %kh_get_oid_map.exit
  %47 = load i32, ptr %12, align 4, !tbaa !113
  %48 = zext i32 %47 to i64
  %49 = tail call ptr @xcalloc(i64 noundef %48, i64 noundef 1) #17
  store ptr %49, ptr %11, align 8, !tbaa !112
  %.pre31 = load ptr, ptr %10, align 8, !tbaa !34
  %.pre32 = load ptr, ptr @island_marks, align 8, !tbaa !4
  br label %oe_set_layer.exit

oe_set_layer.exit:                                ; preds = %kh_get_oid_map.exit, %46
  %50 = phi ptr [ %.pre32, %46 ], [ %14, %kh_get_oid_map.exit ]
  %51 = phi ptr [ %.pre31, %46 ], [ %15, %kh_get_oid_map.exit ]
  %52 = phi ptr [ %49, %46 ], [ %45, %kh_get_oid_map.exit ]
  %53 = ptrtoint ptr %16 to i64
  %54 = ptrtoint ptr %51 to i64
  %55 = sub i64 %53, %54
  %56 = sdiv exact i64 %55, 96
  %57 = getelementptr inbounds i8, ptr %52, i64 %56
  store i8 1, ptr %57, align 1, !tbaa !18
  %58 = load i32, ptr %50, align 8, !tbaa !9
  %59 = icmp ult i32 %.1.i, %58
  br i1 %59, label %60, label %88

60:                                               ; preds = %oe_set_layer.exit
  %61 = getelementptr inbounds nuw i8, ptr %50, i64 32
  %62 = load ptr, ptr %61, align 8, !tbaa !21
  %63 = zext i32 %.1.i to i64
  %64 = getelementptr inbounds nuw ptr, ptr %62, i64 %63
  %65 = load ptr, ptr %64, align 8, !tbaa !22
  %66 = load i32, ptr @island_counter_core, align 4, !tbaa !15
  %67 = getelementptr inbounds nuw i8, ptr %65, i64 4
  %68 = lshr i32 %66, 5
  %69 = zext nneg i32 %68 to i64
  %70 = getelementptr inbounds nuw [0 x i32], ptr %67, i64 0, i64 %69
  %71 = load i32, ptr %70, align 4, !tbaa !15
  %72 = and i32 %66, 31
  %73 = shl nuw i32 1, %72
  %74 = and i32 %73, %71
  %.not = icmp eq i32 %74, 0
  br i1 %.not, label %88, label %75

75:                                               ; preds = %60
  %76 = load ptr, ptr %11, align 8, !tbaa !112
  %.not.i17 = icmp eq ptr %76, null
  br i1 %.not.i17, label %77, label %oe_set_layer.exit18

77:                                               ; preds = %75
  %78 = load i32, ptr %12, align 4, !tbaa !113
  %79 = zext i32 %78 to i64
  %80 = tail call ptr @xcalloc(i64 noundef %79, i64 noundef 1) #17
  store ptr %80, ptr %11, align 8, !tbaa !112
  %.pre = load ptr, ptr @island_marks, align 8, !tbaa !4
  br label %oe_set_layer.exit18

oe_set_layer.exit18:                              ; preds = %75, %77
  %81 = phi ptr [ %.pre, %77 ], [ %50, %75 ]
  %82 = phi ptr [ %80, %77 ], [ %76, %75 ]
  %83 = load ptr, ptr %10, align 8, !tbaa !34
  %84 = ptrtoint ptr %83 to i64
  %85 = sub i64 %53, %84
  %86 = sdiv exact i64 %85, 96
  %87 = getelementptr inbounds i8, ptr %82, i64 %86
  store i8 0, ptr %87, align 1, !tbaa !18
  br label %88

88:                                               ; preds = %60, %oe_set_layer.exit18, %oe_set_layer.exit
  %89 = phi ptr [ %50, %60 ], [ %81, %oe_set_layer.exit18 ], [ %50, %oe_set_layer.exit ]
  %indvars.iv.next = add nuw nsw i64 %indvars.iv, 1
  %90 = load i32, ptr %8, align 8, !tbaa !26
  %91 = zext i32 %90 to i64
  %92 = icmp samesign ult i64 %indvars.iv.next, %91
  br i1 %92, label %13, label %.loopexit, !llvm.loop !114

.loopexit:                                        ; preds = %88, %.preheader, %1
  %.0 = phi i32 [ 1, %1 ], [ 2, %.preheader ], [ 2, %88 ]
  ret i32 %.0
}